target datalayout = "e-m:e-p270:32:32-p271:32:32-p272:64:64-i64:64-i128:128-f80:128-n8:16:32:64-S128"
target triple = "x86_64-pc-linux-gnu"

%struct.ZSTD_matchState_t = type { %struct.ZSTD_window_t, i32, i32, i32, i32, ptr, [8 x i32], i64, i32, ptr, ptr, ptr, i32, i32, %struct.optState_t, ptr, %struct.ZSTD_compressionParameters, ptr, i32, i32 }
%struct.ZSTD_window_t = type { ptr, ptr, ptr, i32, i32, i32 }
%struct.optState_t = type { ptr, ptr, ptr, ptr, ptr, ptr, i32, i32, i32, i32, i32, i32, i32, i32, i32, ptr, i32 }
%struct.ZSTD_compressionParameters = type { i32, i32, i32, i32, i32, i32, i32 }
%struct.seqStore_t = type { ptr, ptr, ptr, ptr, ptr, ptr, ptr, i64, i64, i32, i32 }

; Function Attrs: nounwind uwtable
define internal void @ZSTD_initStats_ultra(ptr noundef %0, ptr noundef %1, ptr noundef %2, ptr noundef %3, i64 noundef %4) #0 {
  %6 = alloca ptr, align 8
  %7 = alloca ptr, align 8
  %8 = alloca ptr, align 8
  %9 = alloca ptr, align 8
  %10 = alloca i64, align 8
  %11 = alloca [3 x i32], align 4
  store ptr %0, ptr %6, align 8
  store ptr %1, ptr %7, align 8
  store ptr %2, ptr %8, align 8
  store ptr %3, ptr %9, align 8
  store i64 %4, ptr %10, align 8
  %12 = getelementptr inbounds [3 x i32], ptr %11, i64 0, i64 0
  %13 = load ptr, ptr %8, align 8
  call void @llvm.memcpy.p0.p0.i64(ptr align 4 %12, ptr align 4 %13, i64 12, i1 false)
  %14 = load ptr, ptr %6, align 8
  %15 = load ptr, ptr %7, align 8
  %16 = getelementptr inbounds [3 x i32], ptr %11, i64 0, i64 0
  %17 = load ptr, ptr %9, align 8
  %18 = load i64, ptr %10, align 8
  %19 = call i64 @ZSTD_compressBlock_opt2(ptr noundef %14, ptr noundef %15, ptr noundef %16, ptr noundef %17, i64 noundef %18, i32 noundef 0)
  %20 = load ptr, ptr %7, align 8
  call void @ZSTD_resetSeqStore(ptr noundef %20)
  %21 = load i64, ptr %10, align 8
  %22 = load ptr, ptr %6, align 8
  %23 = getelementptr inbounds %struct.ZSTD_matchState_t, ptr %22, i32 0, i32 0
  %24 = getelementptr inbounds %struct.ZSTD_window_t, ptr %23, i32 0, i32 1
  %25 = load ptr, ptr %24, align 8
  %26 = sub i64 0, %21
  %27 = getelementptr inbounds i8, ptr %25, i64 %26
  store ptr %27, ptr %24, align 8
  %28 = load i64, ptr %10, align 8
  %29 = trunc i64 %28 to i32
  %30 = load ptr, ptr %6, align 8
  %31 = getelementptr inbounds %struct.ZSTD_matchState_t, ptr %30, i32 0, i32 0
  %32 = getelementptr inbounds %struct.ZSTD_window_t, ptr %31, i32 0, i32 3
  %33 = load i32, ptr %32, align 8
  %34 = add i32 %33, %29
  store i32 %34, ptr %32, align 8
  %35 = load ptr, ptr %6, align 8
  %36 = getelementptr inbounds %struct.ZSTD_matchState_t, ptr %35, i32 0, i32 0
  %37 = getelementptr inbounds %struct.ZSTD_window_t, ptr %36, i32 0, i32 3
  %38 = load i32, ptr %37, align 8
  %39 = load ptr, ptr %6, align 8
  %40 = getelementptr inbounds %struct.ZSTD_matchState_t, ptr %39, i32 0, i32 0
  %41 = getelementptr inbounds %struct.ZSTD_window_t, ptr %40, i32 0, i32 4
  store i32 %38, ptr %41, align 4
  %42 = load ptr, ptr %6, align 8
  %43 = getelementptr inbounds %struct.ZSTD_matchState_t, ptr %42, i32 0, i32 0
  %44 = getelementptr inbounds %struct.ZSTD_window_t, ptr %43, i32 0, i32 3
  %45 = load i32, ptr %44, align 8
  %46 = load ptr, ptr %6, align 8
  %47 = getelementptr inbounds %struct.ZSTD_matchState_t, ptr %46, i32 0, i32 2
  store i32 %45, ptr %47, align 4
  ret void
}

; Function Attrs: nounwind uwtable
define dso_local i64 @ZSTD_compressBlock_btultra2(ptr noundef %0, ptr noundef %1, ptr noundef %2, ptr noundef %3, i64 noundef %4) #0 {
  %6 = alloca ptr, align 8
  %7 = alloca ptr, align 8
  %8 = alloca ptr, align 8
  %9 = alloca ptr, align 8
  %10 = alloca i64, align 8
  %11 = alloca i32, align 4
  store ptr %0, ptr %6, align 8
  store ptr %1, ptr %7, align 8
  store ptr %2, ptr %8, align 8
  store ptr %3, ptr %9, align 8
  store i64 %4, ptr %10, align 8
  %12 = load ptr, ptr %9, align 8
  %13 = load ptr, ptr %6, align 8
  %14 = getelementptr inbounds %struct.ZSTD_matchState_t, ptr %13, i32 0, i32 0
  %15 = getelementptr inbounds %struct.ZSTD_window_t, ptr %14, i32 0, i32 1
  %16 = load ptr, ptr %15, align 8
  %17 = ptrtoint ptr %12 to i64
  %18 = ptrtoint ptr %16 to i64
  %19 = sub i64 %17, %18
  %20 = trunc i64 %19 to i32
  store i32 %20, ptr %11, align 4
  %21 = load ptr, ptr %6, align 8
  %22 = getelementptr inbounds %struct.ZSTD_matchState_t, ptr %21, i32 0, i32 14
  %23 = getelementptr inbounds %struct.optState_t, ptr %22, i32 0, i32 7
  %24 = load i32, ptr %23, align 4
  %25 = icmp eq i32 %24, 0
  br i1 %25, label %26, label %60

26:                                               ; preds = %5
  %27 = load ptr, ptr %7, align 8
  %28 = getelementptr inbounds %struct.seqStore_t, ptr %27, i32 0, i32 1
  %29 = load ptr, ptr %28, align 8
  %30 = load ptr, ptr %7, align 8
  %31 = getelementptr inbounds %struct.seqStore_t, ptr %30, i32 0, i32 0
  %32 = load ptr, ptr %31, align 8
  %33 = icmp eq ptr %29, %32
  br i1 %33, label %34, label %60

34:                                               ; preds = %26
  %35 = load ptr, ptr %6, align 8
  %36 = getelementptr inbounds %struct.ZSTD_matchState_t, ptr %35, i32 0, i32 0
  %37 = getelementptr inbounds %struct.ZSTD_window_t, ptr %36, i32 0, i32 3
  %38 = load i32, ptr %37, align 8
  %39 = load ptr, ptr %6, align 8
  %40 = getelementptr inbounds %struct.ZSTD_matchState_t, ptr %39, i32 0, i32 0
  %41 = getelementptr inbounds %struct.ZSTD_window_t, ptr %40, i32 0, i32 4
  %42 = load i32, ptr %41, align 4
  %43 = icmp eq i32 %38, %42
  br i1 %43, label %44, label %60

44:                                               ; preds = %34
  %45 = load i32, ptr %11, align 4
  %46 = load ptr, ptr %6, align 8
  %47 = getelementptr inbounds %struct.ZSTD_matchState_t, ptr %46, i32 0, i32 0
  %48 = getelementptr inbounds %struct.ZSTD_window_t, ptr %47, i32 0, i32 3
  %49 = load i32, ptr %48, align 8
  %50 = icmp eq i32 %45, %49
  br i1 %50, label %51, label %60

51:                                               ; preds = %44
  %52 = load i64, ptr %10, align 8
  %53 = icmp ugt i64 %52, 8
  br i1 %53, label %54, label %60

54:                                               ; preds = %51
  %55 = load ptr, ptr %6, align 8
  %56 = load ptr, ptr %7, align 8
  %57 = load ptr, ptr %8, align 8
  %58 = load ptr, ptr %9, align 8
  %59 = load i64, ptr %10, align 8
  call void @ZSTD_initStats_ultra(ptr noundef %55, ptr noundef %56, ptr noundef %57, ptr noundef %58, i64 noundef %59)
  br label %60

60:                                               ; preds = %54, %51, %44, %34, %26, %5
  %61 = load ptr, ptr %6, align 8
  %62 = load ptr, ptr %7, align 8
  %63 = load ptr, ptr %8, align 8
  %64 = load ptr, ptr %9, align 8
  %65 = load i64, ptr %10, align 8
  %66 = call i64 @ZSTD_compressBlock_opt2(ptr noundef %61, ptr noundef %62, ptr noundef %63, ptr noundef %64, i64 noundef %65, i32 noundef 0)
  ret i64 %66
}